; Function Attrs: mustprogress nofree norecurse nosync nounwind willreturn memory(read, inaccessiblemem: none) uwtable
define noundef double @_ZNK10open_spiel6garnet11GarnetState9GetRewardEii(ptr nocapture noundef nonnull readonly align 8 dereferenceable(248) %0, i32 noundef %1, i32 noundef %2) local_unnamed_addr #5 align 2 {
  %4 = getelementptr inbounds nuw i8, ptr %0, i64 224
  %5 = getelementptr inbounds nuw i8, ptr %0, i64 60
  %6 = load i32, ptr %5, align 4
  %7 = mul nsw i32 %6, %2
  %8 = add nsw i32 %7, %1
  %9 = sext i32 %8 to i64
  %10 = load ptr, ptr %4, align 8
  %11 = getelementptr inbounds double, ptr %10, i64 %9
  %12 = load double, ptr %11, align 8
  ret double %12
}